(ikeras_frcnn.config
Config
p0
(dp1
S'use_vertical_flips'
p2
I01
sS'rpn_max_overlap'
p3
F0.7
sS'verbose'
p4
I01
sS'num_rois'
p5
I32
sS'img_channel_mean'
p6
(lp7
F103.939
aF116.779
aF123.68
asS'anchor_box_scales'
p8
(lp9
I64
aI128
aI256
asS'anchor_box_ratios'
p10
(lp11
(lp12
I1
aI1
aa(lp13
I1
aI2
aa(lp14
I2
aI1
aasS'rpn_min_overlap'
p15
F0.3
sS'rot_90'
p16
I00
sS'classifier_min_overlap'
p17
F0.1
sS'im_size'
p18
I320
sS'class_mapping'
p19
(dp20
S'ball'
p21
I2
sS'car'
p22
I4
sS'dog'
p23
I6
sS'cat'
p24
I5
sS'bg'
p25
I7
sS'adult'
p26
I0
sS'baby'
p27
I1
sS'bird'
p28
I3
ssS'img_scaling_factor'
p29
F1.0
sS'base_net_weights'
p30
S'/home/lchen63/project/a2d_lele/resnet50_weights_tf_dim_ordering_tf_kernels_notop.h5'
p31
sS'classifier_regr_std'
p32
(lp33
F8.0
aF8.0
aF4.0
aF4.0
asS'model_path'
p34
S'model_frcnn.hdf5'
p35
sS'classifier_max_overlap'
p36
F0.5
sS'std_scaling'
p37
F4.0
sS'use_horizontal_flips'
p38
I01
sS'rpn_stride'
p39
I16
sS'balanced_classes'
p40
I00
sb.